target datalayout = "e-m:e-p270:32:32-p271:32:32-p272:64:64-i64:64-i128:128-f80:128-n8:16:32:64-S128"
target triple = "x86_64-pc-linux-gnu"

%struct.dt_film_import1_t = type { ptr, ptr }

; Function Attrs: nounwind uwtable
define internal i32 @_pathlist_import_run(ptr noundef %0) #0 {
  %2 = alloca ptr, align 8
  %3 = alloca ptr, align 8
  store ptr %0, ptr %2, align 8, !tbaa !11
  call void @llvm.lifetime.start.p0(i64 8, ptr %3) #9
  %4 = load ptr, ptr %2, align 8, !tbaa !11
  %5 = call ptr @dt_control_job_get_params(ptr noundef %4)
  store ptr %5, ptr %3, align 8, !tbaa !13
  %6 = load ptr, ptr %3, align 8, !tbaa !13
  %7 = getelementptr inbounds nuw %struct.dt_film_import1_t, ptr %6, i32 0, i32 1
  %8 = load ptr, ptr %7, align 8, !tbaa !30
  %9 = icmp ne ptr %8, null
  br i1 %9, label %10, label %15

10:                                               ; preds = %1
  %11 = load ptr, ptr %2, align 8, !tbaa !11
  %12 = load ptr, ptr %3, align 8, !tbaa !13
  %13 = getelementptr inbounds nuw %struct.dt_film_import1_t, ptr %12, i32 0, i32 1
  %14 = load ptr, ptr %13, align 8, !tbaa !30
  call void @_film_import1(ptr noundef %11, ptr noundef null, ptr noundef %14)
  br label %15

15:                                               ; preds = %10, %1
  %16 = load ptr, ptr %3, align 8, !tbaa !13
  %17 = getelementptr inbounds nuw %struct.dt_film_import1_t, ptr %16, i32 0, i32 1
  store ptr null, ptr %17, align 8, !tbaa !30
  call void (...) @dt_ui_notify_user()
  call void @llvm.lifetime.end.p0(i64 8, ptr %3) #9
  ret i32 0
}