; Function Attrs: nounwind uwtable
define internal noundef i32 @_pathlist_import_run(ptr noundef %0) #0 {
  %2 = tail call ptr @dt_control_job_get_params(ptr noundef %0) #11
  %3 = getelementptr inbounds nuw i8, ptr %2, i64 8
  %4 = load ptr, ptr %3, align 8, !tbaa !19
  %.not = icmp eq ptr %4, null
  br i1 %.not, label %6, label %5

5:                                                ; preds = %1
  tail call fastcc void @_film_import1(ptr noundef %0, ptr noundef null, ptr noundef nonnull %4)
  br label %6

6:                                                ; preds = %5, %1
  store ptr null, ptr %3, align 8, !tbaa !19
  tail call void (...) @dt_ui_notify_user() #11
  ret i32 0
}